target datalayout = "e-m:e-p270:32:32-p271:32:32-p272:64:64-i64:64-i128:128-f80:128-n8:16:32:64-S128"
target triple = "x86_64-unknown-linux-gnu"

%struct.ecc_set_type = type { i32, i32, ptr, ptr, ptr, ptr, ptr, ptr, ptr, ptr, i32, i32, i32 }
%struct.sp_int = type { i32, i32, [129 x i64] }

; Function Attrs: nounwind uwtable
define internal i32 @wc_ecc_cmp_param(ptr noundef %curveParam, ptr noundef %param, i32 noundef %paramSz, i32 noundef %encType) #0 {
entry:
  %retval = alloca i32, align 4
  %curveParam.addr = alloca ptr, align 8
  %param.addr = alloca ptr, align 8
  %paramSz.addr = alloca i32, align 4
  %encType.addr = alloca i32, align 4
  %err = alloca i32, align 4
  %a = alloca [1 x %struct.sp_int], align 16
  %b = alloca [1 x %struct.sp_int], align 16
  store ptr %curveParam, ptr %curveParam.addr, align 8
  store ptr %param, ptr %param.addr, align 8
  store i32 %paramSz, ptr %paramSz.addr, align 4
  store i32 %encType, ptr %encType.addr, align 4
  store i32 0, ptr %err, align 4
  %0 = load ptr, ptr %param.addr, align 8
  %cmp = icmp eq ptr %0, null
  br i1 %cmp, label %if.then, label %lor.lhs.false

lor.lhs.false:                                    ; preds = %entry
  %1 = load ptr, ptr %curveParam.addr, align 8
  %cmp1 = icmp eq ptr %1, null
  br i1 %cmp1, label %if.then, label %if.end

if.then:                                          ; preds = %lor.lhs.false, %entry
  store i32 -173, ptr %retval, align 4
  br label %return

if.end:                                           ; preds = %lor.lhs.false
  %2 = load i32, ptr %encType.addr, align 4
  %cmp2 = icmp eq i32 %2, 1
  br i1 %cmp2, label %if.then3, label %if.end4

if.then3:                                         ; preds = %if.end
  %3 = load ptr, ptr %curveParam.addr, align 8
  %4 = load ptr, ptr %param.addr, align 8
  %5 = load i32, ptr %paramSz.addr, align 4
  %conv = zext i32 %5 to i64
  %call = call i32 @strncmp(ptr noundef %3, ptr noundef %4, i64 noundef %conv) #6
  store i32 %call, ptr %retval, align 4
  br label %return

if.end4:                                          ; preds = %if.end
  %arraydecay = getelementptr inbounds [1 x %struct.sp_int], ptr %a, i64 0, i64 0
  %arraydecay5 = getelementptr inbounds [1 x %struct.sp_int], ptr %b, i64 0, i64 0
  %call6 = call i32 @sp_init_multi(ptr noundef %arraydecay, ptr noundef %arraydecay5, ptr noundef null, ptr noundef null, ptr noundef null, ptr noundef null)
  store i32 %call6, ptr %err, align 4
  %cmp7 = icmp ne i32 %call6, 0
  br i1 %cmp7, label %if.then9, label %if.end10

if.then9:                                         ; preds = %if.end4
  %6 = load i32, ptr %err, align 4
  store i32 %6, ptr %retval, align 4
  br label %return

if.end10:                                         ; preds = %if.end4
  %7 = load i32, ptr %err, align 4
  %cmp11 = icmp eq i32 %7, 0
  br i1 %cmp11, label %if.then13, label %if.end16

if.then13:                                        ; preds = %if.end10
  %arraydecay14 = getelementptr inbounds [1 x %struct.sp_int], ptr %a, i64 0, i64 0
  %8 = load ptr, ptr %param.addr, align 8
  %9 = load i32, ptr %paramSz.addr, align 4
  %call15 = call i32 @sp_read_unsigned_bin(ptr noundef %arraydecay14, ptr noundef %8, i32 noundef %9)
  store i32 %call15, ptr %err, align 4
  br label %if.end16

if.end16:                                         ; preds = %if.then13, %if.end10
  %10 = load i32, ptr %err, align 4
  %cmp17 = icmp eq i32 %10, 0
  br i1 %cmp17, label %if.then19, label %if.end22

if.then19:                                        ; preds = %if.end16
  %arraydecay20 = getelementptr inbounds [1 x %struct.sp_int], ptr %b, i64 0, i64 0
  %11 = load ptr, ptr %curveParam.addr, align 8
  %call21 = call i32 @sp_read_radix(ptr noundef %arraydecay20, ptr noundef %11, i32 noundef 16)
  store i32 %call21, ptr %err, align 4
  br label %if.end22

if.end22:                                         ; preds = %if.then19, %if.end16
  %12 = load i32, ptr %err, align 4
  %cmp23 = icmp eq i32 %12, 0
  br i1 %cmp23, label %if.then25, label %if.end33

if.then25:                                        ; preds = %if.end22
  %arraydecay26 = getelementptr inbounds [1 x %struct.sp_int], ptr %a, i64 0, i64 0
  %arraydecay27 = getelementptr inbounds [1 x %struct.sp_int], ptr %b, i64 0, i64 0
  %call28 = call i32 @sp_cmp(ptr noundef %arraydecay26, ptr noundef %arraydecay27)
  %cmp29 = icmp ne i32 %call28, 0
  br i1 %cmp29, label %if.then31, label %if.else

if.then31:                                        ; preds = %if.then25
  store i32 -1, ptr %err, align 4
  br label %if.end32

if.else:                                          ; preds = %if.then25
  store i32 0, ptr %err, align 4
  br label %if.end32

if.end32:                                         ; preds = %if.else, %if.then31
  br label %if.end33

if.end33:                                         ; preds = %if.end32, %if.end22
  %arraydecay34 = getelementptr inbounds [1 x %struct.sp_int], ptr %a, i64 0, i64 0
  call void @sp_clear(ptr noundef %arraydecay34)
  %arraydecay35 = getelementptr inbounds [1 x %struct.sp_int], ptr %b, i64 0, i64 0
  call void @sp_clear(ptr noundef %arraydecay35)
  %13 = load i32, ptr %err, align 4
  store i32 %13, ptr %retval, align 4
  br label %return

return:                                           ; preds = %if.end33, %if.then9, %if.then3, %if.then
  %14 = load i32, ptr %retval, align 4
  ret i32 %14
}

; Function Attrs: nounwind uwtable
define i32 @wc_ecc_get_curve_id_from_dp_params(ptr noundef %dp) #0 {
entry:
  %retval = alloca i32, align 4
  %dp.addr = alloca ptr, align 8
  %idx = alloca i32, align 4
  store ptr %dp, ptr %dp.addr, align 8
  %0 = load ptr, ptr %dp.addr, align 8
  %cmp = icmp eq ptr %0, null
  br i1 %cmp, label %if.then, label %lor.lhs.false

lor.lhs.false:                                    ; preds = %entry
  %1 = load ptr, ptr %dp.addr, align 8
  %prime = getelementptr inbounds %struct.ecc_set_type, ptr %1, i32 0, i32 3
  %2 = load ptr, ptr %prime, align 8
  %cmp1 = icmp eq ptr %2, null
  br i1 %cmp1, label %if.then, label %lor.lhs.false2

lor.lhs.false2:                                   ; preds = %lor.lhs.false
  %3 = load ptr, ptr %dp.addr, align 8
  %Af = getelementptr inbounds %struct.ecc_set_type, ptr %3, i32 0, i32 4
  %4 = load ptr, ptr %Af, align 8
  %cmp3 = icmp eq ptr %4, null
  br i1 %cmp3, label %if.then, label %lor.lhs.false4

lor.lhs.false4:                                   ; preds = %lor.lhs.false2
  %5 = load ptr, ptr %dp.addr, align 8
  %Bf = getelementptr inbounds %struct.ecc_set_type, ptr %5, i32 0, i32 5
  %6 = load ptr, ptr %Bf, align 8
  %cmp5 = icmp eq ptr %6, null
  br i1 %cmp5, label %if.then, label %lor.lhs.false6

lor.lhs.false6:                                   ; preds = %lor.lhs.false4
  %7 = load ptr, ptr %dp.addr, align 8
  %order = getelementptr inbounds %struct.ecc_set_type, ptr %7, i32 0, i32 6
  %8 = load ptr, ptr %order, align 8
  %cmp7 = icmp eq ptr %8, null
  br i1 %cmp7, label %if.then, label %lor.lhs.false8

lor.lhs.false8:                                   ; preds = %lor.lhs.false6
  %9 = load ptr, ptr %dp.addr, align 8
  %Gx = getelementptr inbounds %struct.ecc_set_type, ptr %9, i32 0, i32 7
  %10 = load ptr, ptr %Gx, align 8
  %cmp9 = icmp eq ptr %10, null
  br i1 %cmp9, label %if.then, label %lor.lhs.false10

lor.lhs.false10:                                  ; preds = %lor.lhs.false8
  %11 = load ptr, ptr %dp.addr, align 8
  %Gy = getelementptr inbounds %struct.ecc_set_type, ptr %11, i32 0, i32 8
  %12 = load ptr, ptr %Gy, align 8
  %cmp11 = icmp eq ptr %12, null
  br i1 %cmp11, label %if.then, label %if.end

if.then:                                          ; preds = %lor.lhs.false10, %lor.lhs.false8, %lor.lhs.false6, %lor.lhs.false4, %lor.lhs.false2, %lor.lhs.false, %entry
  store i32 -173, ptr %retval, align 4
  br label %return

if.end:                                           ; preds = %lor.lhs.false10
  store i32 0, ptr %idx, align 4
  br label %for.cond

for.cond:                                         ; preds = %for.inc, %if.end
  %13 = load i32, ptr %idx, align 4
  %idxprom = sext i32 %13 to i64
  %arrayidx = getelementptr inbounds [6 x %struct.ecc_set_type], ptr @ecc_sets, i64 0, i64 %idxprom
  %size = getelementptr inbounds %struct.ecc_set_type, ptr %arrayidx, i32 0, i32 0
  %14 = load i32, ptr %size, align 8
  %cmp12 = icmp ne i32 %14, 0
  br i1 %cmp12, label %for.body, label %for.end

for.body:                                         ; preds = %for.cond
  %15 = load ptr, ptr %dp.addr, align 8
  %size13 = getelementptr inbounds %struct.ecc_set_type, ptr %15, i32 0, i32 0
  %16 = load i32, ptr %size13, align 8
  %17 = load i32, ptr %idx, align 4
  %idxprom14 = sext i32 %17 to i64
  %arrayidx15 = getelementptr inbounds [6 x %struct.ecc_set_type], ptr @ecc_sets, i64 0, i64 %idxprom14
  %size16 = getelementptr inbounds %struct.ecc_set_type, ptr %arrayidx15, i32 0, i32 0
  %18 = load i32, ptr %size16, align 8
  %cmp17 = icmp eq i32 %16, %18
  br i1 %cmp17, label %if.then18, label %if.end89

if.then18:                                        ; preds = %for.body
  %19 = load i32, ptr %idx, align 4
  %idxprom19 = sext i32 %19 to i64
  %arrayidx20 = getelementptr inbounds [6 x %struct.ecc_set_type], ptr @ecc_sets, i64 0, i64 %idxprom19
  %prime21 = getelementptr inbounds %struct.ecc_set_type, ptr %arrayidx20, i32 0, i32 3
  %20 = load ptr, ptr %prime21, align 8
  %21 = load ptr, ptr %dp.addr, align 8
  %prime22 = getelementptr inbounds %struct.ecc_set_type, ptr %21, i32 0, i32 3
  %22 = load ptr, ptr %prime22, align 8
  %23 = load ptr, ptr %dp.addr, align 8
  %prime23 = getelementptr inbounds %struct.ecc_set_type, ptr %23, i32 0, i32 3
  %24 = load ptr, ptr %prime23, align 8
  %call = call i64 @strlen(ptr noundef %24) #6
  %conv = trunc i64 %call to i32
  %call24 = call i32 @wc_ecc_cmp_param(ptr noundef %20, ptr noundef %22, i32 noundef %conv, i32 noundef 1)
  %cmp25 = icmp eq i32 %call24, 0
  br i1 %cmp25, label %land.lhs.true, label %if.end88

land.lhs.true:                                    ; preds = %if.then18
  %25 = load i32, ptr %idx, align 4
  %idxprom27 = sext i32 %25 to i64
  %arrayidx28 = getelementptr inbounds [6 x %struct.ecc_set_type], ptr @ecc_sets, i64 0, i64 %idxprom27
  %Af29 = getelementptr inbounds %struct.ecc_set_type, ptr %arrayidx28, i32 0, i32 4
  %26 = load ptr, ptr %Af29, align 8
  %27 = load ptr, ptr %dp.addr, align 8
  %Af30 = getelementptr inbounds %struct.ecc_set_type, ptr %27, i32 0, i32 4
  %28 = load ptr, ptr %Af30, align 8
  %29 = load ptr, ptr %dp.addr, align 8
  %Af31 = getelementptr inbounds %struct.ecc_set_type, ptr %29, i32 0, i32 4
  %30 = load ptr, ptr %Af31, align 8
  %call32 = call i64 @strlen(ptr noundef %30) #6
  %conv33 = trunc i64 %call32 to i32
  %call34 = call i32 @wc_ecc_cmp_param(ptr noundef %26, ptr noundef %28, i32 noundef %conv33, i32 noundef 1)
  %cmp35 = icmp eq i32 %call34, 0
  br i1 %cmp35, label %land.lhs.true37, label %if.end88

land.lhs.true37:                                  ; preds = %land.lhs.true
  %31 = load i32, ptr %idx, align 4
  %idxprom38 = sext i32 %31 to i64
  %arrayidx39 = getelementptr inbounds [6 x %struct.ecc_set_type], ptr @ecc_sets, i64 0, i64 %idxprom38
  %Bf40 = getelementptr inbounds %struct.ecc_set_type, ptr %arrayidx39, i32 0, i32 5
  %32 = load ptr, ptr %Bf40, align 8
  %33 = load ptr, ptr %dp.addr, align 8
  %Bf41 = getelementptr inbounds %struct.ecc_set_type, ptr %33, i32 0, i32 5
  %34 = load ptr, ptr %Bf41, align 8
  %35 = load ptr, ptr %dp.addr, align 8
  %Bf42 = getelementptr inbounds %struct.ecc_set_type, ptr %35, i32 0, i32 5
  %36 = load ptr, ptr %Bf42, align 8
  %call43 = call i64 @strlen(ptr noundef %36) #6
  %conv44 = trunc i64 %call43 to i32
  %call45 = call i32 @wc_ecc_cmp_param(ptr noundef %32, ptr noundef %34, i32 noundef %conv44, i32 noundef 1)
  %cmp46 = icmp eq i32 %call45, 0
  br i1 %cmp46, label %land.lhs.true48, label %if.end88

land.lhs.true48:                                  ; preds = %land.lhs.true37
  %37 = load i32, ptr %idx, align 4
  %idxprom49 = sext i32 %37 to i64
  %arrayidx50 = getelementptr inbounds [6 x %struct.ecc_set_type], ptr @ecc_sets, i64 0, i64 %idxprom49
  %order51 = getelementptr inbounds %struct.ecc_set_type, ptr %arrayidx50, i32 0, i32 6
  %38 = load ptr, ptr %order51, align 8
  %39 = load ptr, ptr %dp.addr, align 8
  %order52 = getelementptr inbounds %struct.ecc_set_type, ptr %39, i32 0, i32 6
  %40 = load ptr, ptr %order52, align 8
  %41 = load ptr, ptr %dp.addr, align 8
  %order53 = getelementptr inbounds %struct.ecc_set_type, ptr %41, i32 0, i32 6
  %42 = load ptr, ptr %order53, align 8
  %call54 = call i64 @strlen(ptr noundef %42) #6
  %conv55 = trunc i64 %call54 to i32
  %call56 = call i32 @wc_ecc_cmp_param(ptr noundef %38, ptr noundef %40, i32 noundef %conv55, i32 noundef 1)
  %cmp57 = icmp eq i32 %call56, 0
  br i1 %cmp57, label %land.lhs.true59, label %if.end88

land.lhs.true59:                                  ; preds = %land.lhs.true48
  %43 = load i32, ptr %idx, align 4
  %idxprom60 = sext i32 %43 to i64
  %arrayidx61 = getelementptr inbounds [6 x %struct.ecc_set_type], ptr @ecc_sets, i64 0, i64 %idxprom60
  %Gx62 = getelementptr inbounds %struct.ecc_set_type, ptr %arrayidx61, i32 0, i32 7
  %44 = load ptr, ptr %Gx62, align 8
  %45 = load ptr, ptr %dp.addr, align 8
  %Gx63 = getelementptr inbounds %struct.ecc_set_type, ptr %45, i32 0, i32 7
  %46 = load ptr, ptr %Gx63, align 8
  %47 = load ptr, ptr %dp.addr, align 8
  %Gx64 = getelementptr inbounds %struct.ecc_set_type, ptr %47, i32 0, i32 7
  %48 = load ptr, ptr %Gx64, align 8
  %call65 = call i64 @strlen(ptr noundef %48) #6
  %conv66 = trunc i64 %call65 to i32
  %call67 = call i32 @wc_ecc_cmp_param(ptr noundef %44, ptr noundef %46, i32 noundef %conv66, i32 noundef 1)
  %cmp68 = icmp eq i32 %call67, 0
  br i1 %cmp68, label %land.lhs.true70, label %if.end88

land.lhs.true70:                                  ; preds = %land.lhs.true59
  %49 = load i32, ptr %idx, align 4
  %idxprom71 = sext i32 %49 to i64
  %arrayidx72 = getelementptr inbounds [6 x %struct.ecc_set_type], ptr @ecc_sets, i64 0, i64 %idxprom71
  %Gy73 = getelementptr inbounds %struct.ecc_set_type, ptr %arrayidx72, i32 0, i32 8
  %50 = load ptr, ptr %Gy73, align 8
  %51 = load ptr, ptr %dp.addr, align 8
  %Gy74 = getelementptr inbounds %struct.ecc_set_type, ptr %51, i32 0, i32 8
  %52 = load ptr, ptr %Gy74, align 8
  %53 = load ptr, ptr %dp.addr, align 8
  %Gy75 = getelementptr inbounds %struct.ecc_set_type, ptr %53, i32 0, i32 8
  %54 = load ptr, ptr %Gy75, align 8
  %call76 = call i64 @strlen(ptr noundef %54) #6
  %conv77 = trunc i64 %call76 to i32
  %call78 = call i32 @wc_ecc_cmp_param(ptr noundef %50, ptr noundef %52, i32 noundef %conv77, i32 noundef 1)
  %cmp79 = icmp eq i32 %call78, 0
  br i1 %cmp79, label %land.lhs.true81, label %if.end88

land.lhs.true81:                                  ; preds = %land.lhs.true70
  %55 = load ptr, ptr %dp.addr, align 8
  %cofactor = getelementptr inbounds %struct.ecc_set_type, ptr %55, i32 0, i32 12
  %56 = load i32, ptr %cofactor, align 8
  %57 = load i32, ptr %idx, align 4
  %idxprom82 = sext i32 %57 to i64
  %arrayidx83 = getelementptr inbounds [6 x %struct.ecc_set_type], ptr @ecc_sets, i64 0, i64 %idxprom82
  %cofactor84 = getelementptr inbounds %struct.ecc_set_type, ptr %arrayidx83, i32 0, i32 12
  %58 = load i32, ptr %cofactor84, align 8
  %cmp85 = icmp eq i32 %56, %58
  br i1 %cmp85, label %if.then87, label %if.end88

if.then87:                                        ; preds = %land.lhs.true81
  br label %for.end

if.end88:                                         ; preds = %land.lhs.true81, %land.lhs.true70, %land.lhs.true59, %land.lhs.true48, %land.lhs.true37, %land.lhs.true, %if.then18
  br label %if.end89

if.end89:                                         ; preds = %if.end88, %for.body
  br label %for.inc

for.inc:                                          ; preds = %if.end89
  %59 = load i32, ptr %idx, align 4
  %inc = add nsw i32 %59, 1
  store i32 %inc, ptr %idx, align 4
  br label %for.cond, !llvm.loop !15

for.end:                                          ; preds = %if.then87, %for.cond
  %60 = load i32, ptr %idx, align 4
  %idxprom90 = sext i32 %60 to i64
  %arrayidx91 = getelementptr inbounds [6 x %struct.ecc_set_type], ptr @ecc_sets, i64 0, i64 %idxprom90
  %size92 = getelementptr inbounds %struct.ecc_set_type, ptr %arrayidx91, i32 0, i32 0
  %61 = load i32, ptr %size92, align 8
  %cmp93 = icmp eq i32 %61, 0
  br i1 %cmp93, label %if.then95, label %if.end96

if.then95:                                        ; preds = %for.end
  store i32 -1, ptr %retval, align 4
  br label %return

if.end96:                                         ; preds = %for.end
  %62 = load i32, ptr %idx, align 4
  %idxprom97 = sext i32 %62 to i64
  %arrayidx98 = getelementptr inbounds [6 x %struct.ecc_set_type], ptr @ecc_sets, i64 0, i64 %idxprom97
  %id = getelementptr inbounds %struct.ecc_set_type, ptr %arrayidx98, i32 0, i32 1
  %63 = load i32, ptr %id, align 4
  store i32 %63, ptr %retval, align 4
  br label %return

return:                                           ; preds = %if.end96, %if.then95, %if.then
  %64 = load i32, ptr %retval, align 4
  ret i32 %64
}