; Function Attrs: nofree nounwind memory(read, inaccessiblemem: none) uwtable
define i32 @wc_ecc_get_curve_id_from_dp_params(ptr noundef readonly %dp) local_unnamed_addr #8 {
entry:
  %cmp = icmp eq ptr %dp, null
  br i1 %cmp, label %return, label %lor.lhs.false

lor.lhs.false:                                    ; preds = %entry
  %prime = getelementptr inbounds nuw i8, ptr %dp, i64 16
  %0 = load ptr, ptr %prime, align 8
  %cmp1 = icmp eq ptr %0, null
  br i1 %cmp1, label %return, label %lor.lhs.false2

lor.lhs.false2:                                   ; preds = %lor.lhs.false
  %Af = getelementptr inbounds nuw i8, ptr %dp, i64 24
  %1 = load ptr, ptr %Af, align 8
  %cmp3 = icmp eq ptr %1, null
  br i1 %cmp3, label %return, label %lor.lhs.false4

lor.lhs.false4:                                   ; preds = %lor.lhs.false2
  %Bf = getelementptr inbounds nuw i8, ptr %dp, i64 32
  %2 = load ptr, ptr %Bf, align 8
  %cmp5 = icmp eq ptr %2, null
  br i1 %cmp5, label %return, label %lor.lhs.false6

lor.lhs.false6:                                   ; preds = %lor.lhs.false4
  %order = getelementptr inbounds nuw i8, ptr %dp, i64 40
  %3 = load ptr, ptr %order, align 8
  %cmp7 = icmp eq ptr %3, null
  br i1 %cmp7, label %return, label %lor.lhs.false8

lor.lhs.false8:                                   ; preds = %lor.lhs.false6
  %Gx = getelementptr inbounds nuw i8, ptr %dp, i64 48
  %4 = load ptr, ptr %Gx, align 8
  %cmp9 = icmp eq ptr %4, null
  br i1 %cmp9, label %return, label %lor.lhs.false10

lor.lhs.false10:                                  ; preds = %lor.lhs.false8
  %Gy = getelementptr inbounds nuw i8, ptr %dp, i64 56
  %5 = load ptr, ptr %Gy, align 8
  %cmp11 = icmp eq ptr %5, null
  br i1 %cmp11, label %return, label %for.cond.preheader

for.cond.preheader:                               ; preds = %lor.lhs.false10
  %6 = load i32, ptr %dp, align 8
  %cofactor = getelementptr inbounds nuw i8, ptr %dp, i64 80
  br label %for.body

for.body:                                         ; preds = %for.cond.preheader, %for.inc
  %indvars.iv = phi i64 [ 0, %for.cond.preheader ], [ %indvars.iv.next, %for.inc ]
  %7 = phi i32 [ 28, %for.cond.preheader ], [ %16, %for.inc ]
  %arrayidx86 = phi ptr [ @ecc_sets, %for.cond.preheader ], [ %arrayidx, %for.inc ]
  %cmp17 = icmp eq i32 %6, %7
  br i1 %cmp17, label %if.then18, label %for.inc

if.then18:                                        ; preds = %for.body
  %prime21 = getelementptr inbounds nuw i8, ptr %arrayidx86, i64 16
  %8 = load ptr, ptr %prime21, align 8
  %cmp1.i = icmp eq ptr %8, null
  br i1 %cmp1.i, label %for.inc, label %wc_ecc_cmp_param.exit

wc_ecc_cmp_param.exit:                            ; preds = %if.then18
  %call = tail call i64 @strlen(ptr noundef nonnull dereferenceable(1) %0) #20
  %conv.i = and i64 %call, 4294967295
  %call.i = tail call i32 @strncmp(ptr noundef nonnull %8, ptr noundef nonnull %0, i64 noundef %conv.i) #20
  %cmp25 = icmp eq i32 %call.i, 0
  br i1 %cmp25, label %land.lhs.true, label %for.inc

land.lhs.true:                                    ; preds = %wc_ecc_cmp_param.exit
  %Af29 = getelementptr inbounds nuw i8, ptr %arrayidx86, i64 24
  %9 = load ptr, ptr %Af29, align 8
  %cmp1.i33 = icmp eq ptr %9, null
  br i1 %cmp1.i33, label %for.inc, label %wc_ecc_cmp_param.exit39

wc_ecc_cmp_param.exit39:                          ; preds = %land.lhs.true
  %call32 = tail call i64 @strlen(ptr noundef nonnull dereferenceable(1) %1) #20
  %conv.i36 = and i64 %call32, 4294967295
  %call.i37 = tail call i32 @strncmp(ptr noundef nonnull %9, ptr noundef nonnull %1, i64 noundef %conv.i36) #20
  %cmp35 = icmp eq i32 %call.i37, 0
  br i1 %cmp35, label %land.lhs.true37, label %for.inc

land.lhs.true37:                                  ; preds = %wc_ecc_cmp_param.exit39
  %Bf40 = getelementptr inbounds nuw i8, ptr %arrayidx86, i64 32
  %10 = load ptr, ptr %Bf40, align 8
  %cmp1.i41 = icmp eq ptr %10, null
  br i1 %cmp1.i41, label %for.inc, label %wc_ecc_cmp_param.exit47

wc_ecc_cmp_param.exit47:                          ; preds = %land.lhs.true37
  %call43 = tail call i64 @strlen(ptr noundef nonnull dereferenceable(1) %2) #20
  %conv.i44 = and i64 %call43, 4294967295
  %call.i45 = tail call i32 @strncmp(ptr noundef nonnull %10, ptr noundef nonnull %2, i64 noundef %conv.i44) #20
  %cmp46 = icmp eq i32 %call.i45, 0
  br i1 %cmp46, label %land.lhs.true48, label %for.inc

land.lhs.true48:                                  ; preds = %wc_ecc_cmp_param.exit47
  %order51 = getelementptr inbounds nuw i8, ptr %arrayidx86, i64 40
  %11 = load ptr, ptr %order51, align 8
  %cmp1.i49 = icmp eq ptr %11, null
  br i1 %cmp1.i49, label %for.inc, label %wc_ecc_cmp_param.exit55

wc_ecc_cmp_param.exit55:                          ; preds = %land.lhs.true48
  %call54 = tail call i64 @strlen(ptr noundef nonnull dereferenceable(1) %3) #20
  %conv.i52 = and i64 %call54, 4294967295
  %call.i53 = tail call i32 @strncmp(ptr noundef nonnull %11, ptr noundef nonnull %3, i64 noundef %conv.i52) #20
  %cmp57 = icmp eq i32 %call.i53, 0
  br i1 %cmp57, label %land.lhs.true59, label %for.inc

land.lhs.true59:                                  ; preds = %wc_ecc_cmp_param.exit55
  %Gx62 = getelementptr inbounds nuw i8, ptr %arrayidx86, i64 48
  %12 = load ptr, ptr %Gx62, align 8
  %cmp1.i57 = icmp eq ptr %12, null
  br i1 %cmp1.i57, label %for.inc, label %wc_ecc_cmp_param.exit63

wc_ecc_cmp_param.exit63:                          ; preds = %land.lhs.true59
  %call65 = tail call i64 @strlen(ptr noundef nonnull dereferenceable(1) %4) #20
  %conv.i60 = and i64 %call65, 4294967295
  %call.i61 = tail call i32 @strncmp(ptr noundef nonnull %12, ptr noundef nonnull %4, i64 noundef %conv.i60) #20
  %cmp68 = icmp eq i32 %call.i61, 0
  br i1 %cmp68, label %land.lhs.true70, label %for.inc

land.lhs.true70:                                  ; preds = %wc_ecc_cmp_param.exit63
  %Gy73 = getelementptr inbounds nuw i8, ptr %arrayidx86, i64 56
  %13 = load ptr, ptr %Gy73, align 8
  %cmp1.i65 = icmp eq ptr %13, null
  br i1 %cmp1.i65, label %for.inc, label %wc_ecc_cmp_param.exit71

wc_ecc_cmp_param.exit71:                          ; preds = %land.lhs.true70
  %call76 = tail call i64 @strlen(ptr noundef nonnull dereferenceable(1) %5) #20
  %conv.i68 = and i64 %call76, 4294967295
  %call.i69 = tail call i32 @strncmp(ptr noundef nonnull %13, ptr noundef nonnull %5, i64 noundef %conv.i68) #20
  %cmp79 = icmp eq i32 %call.i69, 0
  br i1 %cmp79, label %land.lhs.true81, label %for.inc

land.lhs.true81:                                  ; preds = %wc_ecc_cmp_param.exit71
  %14 = load i32, ptr %cofactor, align 8
  %cofactor84 = getelementptr inbounds nuw i8, ptr %arrayidx86, i64 80
  %15 = load i32, ptr %cofactor84, align 8
  %cmp85 = icmp eq i32 %14, %15
  br i1 %cmp85, label %if.end96, label %for.inc

for.inc:                                          ; preds = %land.lhs.true70, %land.lhs.true59, %land.lhs.true48, %land.lhs.true37, %land.lhs.true, %if.then18, %for.body, %land.lhs.true81, %wc_ecc_cmp_param.exit71, %wc_ecc_cmp_param.exit63, %wc_ecc_cmp_param.exit55, %wc_ecc_cmp_param.exit47, %wc_ecc_cmp_param.exit39, %wc_ecc_cmp_param.exit
  %indvars.iv.next = add nuw nsw i64 %indvars.iv, 1
  %arrayidx = getelementptr inbounds nuw [6 x %struct.ecc_set_type], ptr @ecc_sets, i64 0, i64 %indvars.iv.next
  %16 = load i32, ptr %arrayidx, align 8
  %exitcond = icmp eq i64 %indvars.iv.next, 5
  br i1 %exitcond, label %return, label %for.body, !llvm.loop !14

if.end96:                                         ; preds = %land.lhs.true81
  %id = getelementptr inbounds nuw i8, ptr %arrayidx86, i64 4
  %17 = load i32, ptr %id, align 4
  br label %return

return:                                           ; preds = %for.inc, %entry, %lor.lhs.false, %lor.lhs.false2, %lor.lhs.false4, %lor.lhs.false6, %lor.lhs.false8, %lor.lhs.false10, %if.end96
  %retval.0 = phi i32 [ %17, %if.end96 ], [ -173, %lor.lhs.false10 ], [ -173, %lor.lhs.false8 ], [ -173, %lor.lhs.false6 ], [ -173, %lor.lhs.false4 ], [ -173, %lor.lhs.false2 ], [ -173, %lor.lhs.false ], [ -173, %entry ], [ -1, %for.inc ]
  ret i32 %retval.0
}